; Function Attrs: mustprogress uwtable
define dso_local void @_Z45ImGui_ImplGlfw_SetCallbacksChainForAllWindowsb(i1 noundef zeroext %0) local_unnamed_addr #1 {
_ZL29ImGui_ImplGlfw_GetBackendDatav.exit:
  %1 = zext i1 %0 to i8
  %2 = tail call noundef ptr @_ZN5ImGui17GetCurrentContextEv()
  %.not.i = icmp ne ptr %2, null
  tail call void @llvm.assume(i1 %.not.i)
  %3 = tail call noundef nonnull align 8 dereferenceable(2944) ptr @_ZN5ImGui5GetIOEv()
  %4 = getelementptr inbounds nuw i8, ptr %3, i64 144
  %5 = load ptr, ptr %4, align 8, !tbaa !4
  %6 = getelementptr inbounds nuw i8, ptr %5, i64 113
  store i8 %1, ptr %6, align 1, !tbaa !26
  ret void
}